; Function Attrs: nounwind uwtable
define dso_local noundef zeroext i1 @tuplestore_gettupleslot(ptr noundef %0, i1 noundef zeroext %1, i1 noundef zeroext %2, ptr noundef %3) local_unnamed_addr #0 {
  %5 = alloca i8, align 1
  call void @llvm.lifetime.start.p0(i64 1, ptr nonnull %5) #9
  %6 = call fastcc ptr @tuplestore_gettuple(ptr noundef %0, i1 noundef zeroext %1, ptr noundef %5)
  %.not = icmp ne ptr %6, null
  br i1 %.not, label %7, label %16

7:                                                ; preds = %4
  %.pre = load i8, ptr %5, align 1, !range !4
  br i1 %2, label %8, label %12

8:                                                ; preds = %7
  %9 = trunc nuw i8 %.pre to i1
  br i1 %9, label %12, label %10

10:                                               ; preds = %8
  %11 = tail call ptr @heap_copy_minimal_tuple(ptr noundef nonnull %6) #9
  br label %12

12:                                               ; preds = %10, %8, %7
  %13 = phi i8 [ 1, %8 ], [ 1, %10 ], [ %.pre, %7 ]
  %.0 = phi ptr [ %6, %8 ], [ %11, %10 ], [ %6, %7 ]
  %14 = trunc nuw i8 %13 to i1
  %15 = tail call ptr @ExecStoreMinimalTuple(ptr noundef %.0, ptr noundef %3, i1 noundef zeroext %14) #9
  br label %21

16:                                               ; preds = %4
  %17 = getelementptr inbounds nuw i8, ptr %3, i64 8
  %18 = load ptr, ptr %17, align 8
  %19 = getelementptr inbounds nuw i8, ptr %18, i64 24
  %20 = load ptr, ptr %19, align 8
  tail call void %20(ptr noundef %3) #9
  br label %21

21:                                               ; preds = %16, %12
  call void @llvm.lifetime.end.p0(i64 1, ptr nonnull %5) #9
  ret i1 %.not
}